target datalayout = "e-m:e-p270:32:32-p271:32:32-p272:64:64-i64:64-i128:128-f80:128-n8:16:32:64-S128"
target triple = "x86_64-pc-linux-gnu"

%struct.AVFormatContext = type { ptr, ptr, ptr, ptr, ptr, i32, i32, ptr, i32, ptr, i32, ptr, ptr, i64, i64, i64, i32, i32, i32, i64, i64, ptr, i32, i32, ptr, i32, i32, i32, i32, ptr, i64, i32, i32, %struct.AVIOInterruptCB, i32, i32, i32, i32, i64, i32, i32, i32, i32, i32, i32, i32, i32, i32, i32, i32, i32, i64, i32, i32, i32, i32, i32, ptr, ptr, ptr, ptr, i32, ptr, ptr, ptr, ptr, i32, ptr, ptr, i64, ptr, ptr, ptr, i64 }
%struct.AVIOInterruptCB = type { ptr, ptr }
%struct.IcoDemuxContext = type { i32, i32, ptr }
%struct.AVStream = type { ptr, i32, i32, ptr, ptr, %struct.AVRational, i64, i64, i64, i32, i32, %struct.AVRational, ptr, %struct.AVRational, %struct.AVPacket, i32, %struct.AVRational, i32 }
%struct.AVPacket = type { ptr, i64, i64, ptr, i32, i32, i32, ptr, i32, i64, i64, ptr, ptr, %struct.AVRational }
%struct.AVRational = type { i32, i32 }
%struct.AVCodecParameters = type { i32, i32, i32, ptr, i32, ptr, i32, i32, i64, i32, i32, i32, i32, i32, i32, %struct.AVRational, %struct.AVRational, i32, i32, i32, i32, i32, i32, i32, %struct.AVChannelLayout, i32, i32, i32, i32, i32, i32 }
%struct.AVChannelLayout = type { i32, i32, %union.anon, ptr }
%union.anon = type { i64 }
%struct.IcoImage = type { i32, i32, i32 }

@.str.2 = private unnamed_addr constant [23 x i8] c"Invalid image size %d\0A\00", align 1
@.str.3 = private unnamed_addr constant [9 x i8] c"codec %d\00", align 1

; Function Attrs: nounwind uwtable
define internal i32 @read_header(ptr noundef %0) #0 {
  %2 = alloca i32, align 4
  %3 = alloca ptr, align 8
  %4 = alloca ptr, align 8
  %5 = alloca ptr, align 8
  %6 = alloca i32, align 4
  %7 = alloca i32, align 4
  %8 = alloca i32, align 4
  %9 = alloca ptr, align 8
  %10 = alloca i32, align 4
  store ptr %0, ptr %3, align 8, !tbaa !18
  call void @llvm.lifetime.start.p0(i64 8, ptr %4) #6
  %11 = load ptr, ptr %3, align 8, !tbaa !18
  %12 = getelementptr inbounds nuw %struct.AVFormatContext, ptr %11, i32 0, i32 3
  %13 = load ptr, ptr %12, align 8, !tbaa !20
  store ptr %13, ptr %4, align 8, !tbaa !35
  call void @llvm.lifetime.start.p0(i64 8, ptr %5) #6
  %14 = load ptr, ptr %3, align 8, !tbaa !18
  %15 = getelementptr inbounds nuw %struct.AVFormatContext, ptr %14, i32 0, i32 4
  %16 = load ptr, ptr %15, align 8, !tbaa !36
  store ptr %16, ptr %5, align 8, !tbaa !37
  call void @llvm.lifetime.start.p0(i64 4, ptr %6) #6
  call void @llvm.lifetime.start.p0(i64 4, ptr %7) #6
  %17 = load ptr, ptr %5, align 8, !tbaa !37
  %18 = call i64 @avio_skip(ptr noundef %17, i64 noundef 4)
  %19 = load ptr, ptr %5, align 8, !tbaa !37
  %20 = call i32 @avio_rl16(ptr noundef %19)
  %21 = load ptr, ptr %4, align 8, !tbaa !35
  %22 = getelementptr inbounds nuw %struct.IcoDemuxContext, ptr %21, i32 0, i32 1
  store i32 %20, ptr %22, align 4, !tbaa !38
  %23 = load ptr, ptr %4, align 8, !tbaa !35
  %24 = getelementptr inbounds nuw %struct.IcoDemuxContext, ptr %23, i32 0, i32 1
  %25 = load i32, ptr %24, align 4, !tbaa !38
  %26 = icmp ne i32 %25, 0
  br i1 %26, label %28, label %27

27:                                               ; preds = %1
  store i32 -1094995529, ptr %2, align 4
  store i32 1, ptr %8, align 4
  br label %227

28:                                               ; preds = %1
  %29 = load ptr, ptr %4, align 8, !tbaa !35
  %30 = getelementptr inbounds nuw %struct.IcoDemuxContext, ptr %29, i32 0, i32 1
  %31 = load i32, ptr %30, align 4, !tbaa !38
  %32 = sext i32 %31 to i64
  %33 = call ptr @av_malloc_array(i64 noundef %32, i64 noundef 12)
  %34 = load ptr, ptr %4, align 8, !tbaa !35
  %35 = getelementptr inbounds nuw %struct.IcoDemuxContext, ptr %34, i32 0, i32 2
  store ptr %33, ptr %35, align 8, !tbaa !40
  %36 = load ptr, ptr %4, align 8, !tbaa !35
  %37 = getelementptr inbounds nuw %struct.IcoDemuxContext, ptr %36, i32 0, i32 2
  %38 = load ptr, ptr %37, align 8, !tbaa !40
  %39 = icmp ne ptr %38, null
  br i1 %39, label %41, label %40

40:                                               ; preds = %28
  store i32 -12, ptr %2, align 4
  store i32 1, ptr %8, align 4
  br label %227

41:                                               ; preds = %28
  store i32 0, ptr %6, align 4, !tbaa !9
  br label %42

42:                                               ; preds = %223, %41
  %43 = load i32, ptr %6, align 4, !tbaa !9
  %44 = load ptr, ptr %4, align 8, !tbaa !35
  %45 = getelementptr inbounds nuw %struct.IcoDemuxContext, ptr %44, i32 0, i32 1
  %46 = load i32, ptr %45, align 4, !tbaa !38
  %47 = icmp slt i32 %43, %46
  br i1 %47, label %48, label %226

48:                                               ; preds = %42
  call void @llvm.lifetime.start.p0(i64 8, ptr %9) #6
  call void @llvm.lifetime.start.p0(i64 4, ptr %10) #6
  %49 = load ptr, ptr %5, align 8, !tbaa !37
  %50 = load i32, ptr %6, align 4, !tbaa !9
  %51 = mul nsw i32 %50, 16
  %52 = add nsw i32 6, %51
  %53 = sext i32 %52 to i64
  %54 = call i64 @avio_seek(ptr noundef %49, i64 noundef %53, i32 noundef 0)
  %55 = icmp slt i64 %54, 0
  br i1 %55, label %56, label %57

56:                                               ; preds = %48
  store i32 -1094995529, ptr %2, align 4
  store i32 1, ptr %8, align 4
  br label %220

57:                                               ; preds = %48
  %58 = load ptr, ptr %3, align 8, !tbaa !18
  %59 = call ptr @avformat_new_stream(ptr noundef %58, ptr noundef null)
  store ptr %59, ptr %9, align 8, !tbaa !41
  %60 = load ptr, ptr %9, align 8, !tbaa !41
  %61 = icmp ne ptr %60, null
  br i1 %61, label %63, label %62

62:                                               ; preds = %57
  store i32 -12, ptr %2, align 4
  store i32 1, ptr %8, align 4
  br label %220

63:                                               ; preds = %57
  %64 = load ptr, ptr %9, align 8, !tbaa !41
  %65 = getelementptr inbounds nuw %struct.AVStream, ptr %64, i32 0, i32 3
  %66 = load ptr, ptr %65, align 8, !tbaa !43
  %67 = getelementptr inbounds nuw %struct.AVCodecParameters, ptr %66, i32 0, i32 0
  store i32 0, ptr %67, align 8, !tbaa !50
  %68 = load ptr, ptr %5, align 8, !tbaa !37
  %69 = call i32 @avio_r8(ptr noundef %68)
  %70 = load ptr, ptr %9, align 8, !tbaa !41
  %71 = getelementptr inbounds nuw %struct.AVStream, ptr %70, i32 0, i32 3
  %72 = load ptr, ptr %71, align 8, !tbaa !43
  %73 = getelementptr inbounds nuw %struct.AVCodecParameters, ptr %72, i32 0, i32 13
  store i32 %69, ptr %73, align 8, !tbaa !53
  %74 = load ptr, ptr %5, align 8, !tbaa !37
  %75 = call i32 @avio_r8(ptr noundef %74)
  %76 = load ptr, ptr %9, align 8, !tbaa !41
  %77 = getelementptr inbounds nuw %struct.AVStream, ptr %76, i32 0, i32 3
  %78 = load ptr, ptr %77, align 8, !tbaa !43
  %79 = getelementptr inbounds nuw %struct.AVCodecParameters, ptr %78, i32 0, i32 14
  store i32 %75, ptr %79, align 4, !tbaa !54
  %80 = load ptr, ptr %5, align 8, !tbaa !37
  %81 = call i32 @avio_r8(ptr noundef %80)
  %82 = load ptr, ptr %4, align 8, !tbaa !35
  %83 = getelementptr inbounds nuw %struct.IcoDemuxContext, ptr %82, i32 0, i32 2
  %84 = load ptr, ptr %83, align 8, !tbaa !40
  %85 = load i32, ptr %6, align 4, !tbaa !9
  %86 = sext i32 %85 to i64
  %87 = getelementptr inbounds %struct.IcoImage, ptr %84, i64 %86
  %88 = getelementptr inbounds nuw %struct.IcoImage, ptr %87, i32 0, i32 2
  store i32 %81, ptr %88, align 4, !tbaa !55
  %89 = load ptr, ptr %4, align 8, !tbaa !35
  %90 = getelementptr inbounds nuw %struct.IcoDemuxContext, ptr %89, i32 0, i32 2
  %91 = load ptr, ptr %90, align 8, !tbaa !40
  %92 = load i32, ptr %6, align 4, !tbaa !9
  %93 = sext i32 %92 to i64
  %94 = getelementptr inbounds %struct.IcoImage, ptr %91, i64 %93
  %95 = getelementptr inbounds nuw %struct.IcoImage, ptr %94, i32 0, i32 2
  %96 = load i32, ptr %95, align 4, !tbaa !55
  %97 = icmp eq i32 %96, 255
  br i1 %97, label %98, label %106

98:                                               ; preds = %63
  %99 = load ptr, ptr %4, align 8, !tbaa !35
  %100 = getelementptr inbounds nuw %struct.IcoDemuxContext, ptr %99, i32 0, i32 2
  %101 = load ptr, ptr %100, align 8, !tbaa !40
  %102 = load i32, ptr %6, align 4, !tbaa !9
  %103 = sext i32 %102 to i64
  %104 = getelementptr inbounds %struct.IcoImage, ptr %101, i64 %103
  %105 = getelementptr inbounds nuw %struct.IcoImage, ptr %104, i32 0, i32 2
  store i32 0, ptr %105, align 4, !tbaa !55
  br label %106

106:                                              ; preds = %98, %63
  %107 = load ptr, ptr %5, align 8, !tbaa !37
  %108 = call i64 @avio_skip(ptr noundef %107, i64 noundef 5)
  %109 = load ptr, ptr %5, align 8, !tbaa !37
  %110 = call i32 @avio_rl32(ptr noundef %109)
  %111 = load ptr, ptr %4, align 8, !tbaa !35
  %112 = getelementptr inbounds nuw %struct.IcoDemuxContext, ptr %111, i32 0, i32 2
  %113 = load ptr, ptr %112, align 8, !tbaa !40
  %114 = load i32, ptr %6, align 4, !tbaa !9
  %115 = sext i32 %114 to i64
  %116 = getelementptr inbounds %struct.IcoImage, ptr %113, i64 %115
  %117 = getelementptr inbounds nuw %struct.IcoImage, ptr %116, i32 0, i32 1
  store i32 %110, ptr %117, align 4, !tbaa !57
  %118 = load ptr, ptr %4, align 8, !tbaa !35
  %119 = getelementptr inbounds nuw %struct.IcoDemuxContext, ptr %118, i32 0, i32 2
  %120 = load ptr, ptr %119, align 8, !tbaa !40
  %121 = load i32, ptr %6, align 4, !tbaa !9
  %122 = sext i32 %121 to i64
  %123 = getelementptr inbounds %struct.IcoImage, ptr %120, i64 %122
  %124 = getelementptr inbounds nuw %struct.IcoImage, ptr %123, i32 0, i32 1
  %125 = load i32, ptr %124, align 4, !tbaa !57
  %126 = icmp sle i32 %125, 0
  br i1 %126, label %127, label %137

127:                                              ; preds = %106
  %128 = load ptr, ptr %3, align 8, !tbaa !18
  %129 = load ptr, ptr %4, align 8, !tbaa !35
  %130 = getelementptr inbounds nuw %struct.IcoDemuxContext, ptr %129, i32 0, i32 2
  %131 = load ptr, ptr %130, align 8, !tbaa !40
  %132 = load i32, ptr %6, align 4, !tbaa !9
  %133 = sext i32 %132 to i64
  %134 = getelementptr inbounds %struct.IcoImage, ptr %131, i64 %133
  %135 = getelementptr inbounds nuw %struct.IcoImage, ptr %134, i32 0, i32 1
  %136 = load i32, ptr %135, align 4, !tbaa !57
  call void (ptr, i32, ptr, ...) @av_log(ptr noundef %128, i32 noundef 16, ptr noundef @.str.2, i32 noundef %136)
  store i32 -1094995529, ptr %2, align 4
  store i32 1, ptr %8, align 4
  br label %220

137:                                              ; preds = %106
  %138 = load ptr, ptr %5, align 8, !tbaa !37
  %139 = call i32 @avio_rl32(ptr noundef %138)
  %140 = load ptr, ptr %4, align 8, !tbaa !35
  %141 = getelementptr inbounds nuw %struct.IcoDemuxContext, ptr %140, i32 0, i32 2
  %142 = load ptr, ptr %141, align 8, !tbaa !40
  %143 = load i32, ptr %6, align 4, !tbaa !9
  %144 = sext i32 %143 to i64
  %145 = getelementptr inbounds %struct.IcoImage, ptr %142, i64 %144
  %146 = getelementptr inbounds nuw %struct.IcoImage, ptr %145, i32 0, i32 0
  store i32 %139, ptr %146, align 4, !tbaa !58
  %147 = load ptr, ptr %5, align 8, !tbaa !37
  %148 = load ptr, ptr %4, align 8, !tbaa !35
  %149 = getelementptr inbounds nuw %struct.IcoDemuxContext, ptr %148, i32 0, i32 2
  %150 = load ptr, ptr %149, align 8, !tbaa !40
  %151 = load i32, ptr %6, align 4, !tbaa !9
  %152 = sext i32 %151 to i64
  %153 = getelementptr inbounds %struct.IcoImage, ptr %150, i64 %152
  %154 = getelementptr inbounds nuw %struct.IcoImage, ptr %153, i32 0, i32 0
  %155 = load i32, ptr %154, align 4, !tbaa !58
  %156 = sext i32 %155 to i64
  %157 = call i64 @avio_seek(ptr noundef %147, i64 noundef %156, i32 noundef 0)
  %158 = icmp slt i64 %157, 0
  br i1 %158, label %159, label %160

159:                                              ; preds = %137
  store i32 -1094995529, ptr %2, align 4
  store i32 1, ptr %8, align 4
  br label %220

160:                                              ; preds = %137
  %161 = load ptr, ptr %5, align 8, !tbaa !37
  %162 = call i32 @avio_rl32(ptr noundef %161)
  store i32 %162, ptr %7, align 4, !tbaa !9
  %163 = load i32, ptr %7, align 4, !tbaa !9
  switch i32 %163, label %216 [
    i32 1196314761, label %164
    i32 40, label %177
  ]

164:                                              ; preds = %160
  %165 = load ptr, ptr %9, align 8, !tbaa !41
  %166 = getelementptr inbounds nuw %struct.AVStream, ptr %165, i32 0, i32 3
  %167 = load ptr, ptr %166, align 8, !tbaa !43
  %168 = getelementptr inbounds nuw %struct.AVCodecParameters, ptr %167, i32 0, i32 1
  store i32 61, ptr %168, align 4, !tbaa !59
  %169 = load ptr, ptr %9, align 8, !tbaa !41
  %170 = getelementptr inbounds nuw %struct.AVStream, ptr %169, i32 0, i32 3
  %171 = load ptr, ptr %170, align 8, !tbaa !43
  %172 = getelementptr inbounds nuw %struct.AVCodecParameters, ptr %171, i32 0, i32 13
  store i32 0, ptr %172, align 8, !tbaa !53
  %173 = load ptr, ptr %9, align 8, !tbaa !41
  %174 = getelementptr inbounds nuw %struct.AVStream, ptr %173, i32 0, i32 3
  %175 = load ptr, ptr %174, align 8, !tbaa !43
  %176 = getelementptr inbounds nuw %struct.AVCodecParameters, ptr %175, i32 0, i32 14
  store i32 0, ptr %176, align 4, !tbaa !54
  br label %219

177:                                              ; preds = %160
  %178 = load ptr, ptr %4, align 8, !tbaa !35
  %179 = getelementptr inbounds nuw %struct.IcoDemuxContext, ptr %178, i32 0, i32 2
  %180 = load ptr, ptr %179, align 8, !tbaa !40
  %181 = load i32, ptr %6, align 4, !tbaa !9
  %182 = sext i32 %181 to i64
  %183 = getelementptr inbounds %struct.IcoImage, ptr %180, i64 %182
  %184 = getelementptr inbounds nuw %struct.IcoImage, ptr %183, i32 0, i32 1
  %185 = load i32, ptr %184, align 4, !tbaa !57
  %186 = icmp slt i32 %185, 40
  br i1 %186, label %187, label %188

187:                                              ; preds = %177
  store i32 -1094995529, ptr %2, align 4
  store i32 1, ptr %8, align 4
  br label %220

188:                                              ; preds = %177
  %189 = load ptr, ptr %9, align 8, !tbaa !41
  %190 = getelementptr inbounds nuw %struct.AVStream, ptr %189, i32 0, i32 3
  %191 = load ptr, ptr %190, align 8, !tbaa !43
  %192 = getelementptr inbounds nuw %struct.AVCodecParameters, ptr %191, i32 0, i32 1
  store i32 78, ptr %192, align 4, !tbaa !59
  %193 = load ptr, ptr %5, align 8, !tbaa !37
  %194 = call i32 @avio_rl32(ptr noundef %193)
  store i32 %194, ptr %10, align 4, !tbaa !9
  %195 = load i32, ptr %10, align 4, !tbaa !9
  %196 = icmp ne i32 %195, 0
  br i1 %196, label %197, label %203

197:                                              ; preds = %188
  %198 = load i32, ptr %10, align 4, !tbaa !9
  %199 = load ptr, ptr %9, align 8, !tbaa !41
  %200 = getelementptr inbounds nuw %struct.AVStream, ptr %199, i32 0, i32 3
  %201 = load ptr, ptr %200, align 8, !tbaa !43
  %202 = getelementptr inbounds nuw %struct.AVCodecParameters, ptr %201, i32 0, i32 13
  store i32 %198, ptr %202, align 8, !tbaa !53
  br label %203

203:                                              ; preds = %197, %188
  %204 = load ptr, ptr %5, align 8, !tbaa !37
  %205 = call i32 @avio_rl32(ptr noundef %204)
  store i32 %205, ptr %10, align 4, !tbaa !9
  %206 = load i32, ptr %10, align 4, !tbaa !9
  %207 = icmp ne i32 %206, 0
  br i1 %207, label %208, label %215

208:                                              ; preds = %203
  %209 = load i32, ptr %10, align 4, !tbaa !9
  %210 = sdiv i32 %209, 2
  %211 = load ptr, ptr %9, align 8, !tbaa !41
  %212 = getelementptr inbounds nuw %struct.AVStream, ptr %211, i32 0, i32 3
  %213 = load ptr, ptr %212, align 8, !tbaa !43
  %214 = getelementptr inbounds nuw %struct.AVCodecParameters, ptr %213, i32 0, i32 14
  store i32 %210, ptr %214, align 4, !tbaa !54
  br label %215

215:                                              ; preds = %208, %203
  br label %219

216:                                              ; preds = %160
  %217 = load ptr, ptr %3, align 8, !tbaa !18
  %218 = load i32, ptr %7, align 4, !tbaa !9
  call void (ptr, ptr, ...) @avpriv_request_sample(ptr noundef %217, ptr noundef @.str.3, i32 noundef %218)
  store i32 -1094995529, ptr %2, align 4
  store i32 1, ptr %8, align 4
  br label %220

219:                                              ; preds = %215, %164
  store i32 0, ptr %8, align 4
  br label %220

220:                                              ; preds = %219, %216, %187, %159, %127, %62, %56
  call void @llvm.lifetime.end.p0(i64 4, ptr %10) #6
  call void @llvm.lifetime.end.p0(i64 8, ptr %9) #6
  %221 = load i32, ptr %8, align 4
  switch i32 %221, label %227 [
    i32 0, label %222
  ]

222:                                              ; preds = %220
  br label %223

223:                                              ; preds = %222
  %224 = load i32, ptr %6, align 4, !tbaa !9
  %225 = add nsw i32 %224, 1
  store i32 %225, ptr %6, align 4, !tbaa !9
  br label %42, !llvm.loop !60

226:                                              ; preds = %42
  store i32 0, ptr %2, align 4
  store i32 1, ptr %8, align 4
  br label %227

227:                                              ; preds = %226, %220, %40, %27
  call void @llvm.lifetime.end.p0(i64 4, ptr %7) #6
  call void @llvm.lifetime.end.p0(i64 4, ptr %6) #6
  call void @llvm.lifetime.end.p0(i64 8, ptr %5) #6
  call void @llvm.lifetime.end.p0(i64 8, ptr %4) #6
  %228 = load i32, ptr %2, align 4
  ret i32 %228
}