; Function Attrs: nounwind uwtable
define internal range(i32 -1094995529, 1) i32 @read_header(ptr noundef %0) #1 {
  %2 = getelementptr inbounds nuw i8, ptr %0, i64 24
  %3 = load ptr, ptr %2, align 8, !tbaa !15
  %4 = getelementptr inbounds nuw i8, ptr %0, i64 32
  %5 = load ptr, ptr %4, align 8, !tbaa !30
  %6 = tail call i64 @avio_skip(ptr noundef %5, i64 noundef 4) #4
  %7 = tail call i32 @avio_rl16(ptr noundef %5) #4
  %8 = getelementptr inbounds nuw i8, ptr %3, i64 4
  store i32 %7, ptr %8, align 4, !tbaa !31
  %.not = icmp eq i32 %7, 0
  br i1 %.not, label %.thread, label %9

9:                                                ; preds = %1
  %10 = sext i32 %7 to i64
  %11 = tail call ptr @av_malloc_array(i64 noundef %10, i64 noundef 12) #4
  %12 = getelementptr inbounds nuw i8, ptr %3, i64 8
  store ptr %11, ptr %12, align 8, !tbaa !33
  %.not69 = icmp eq ptr %11, null
  br i1 %.not69, label %.thread, label %.preheader

.preheader:                                       ; preds = %9
  %13 = load i32, ptr %8, align 4, !tbaa !31
  %14 = icmp sgt i32 %13, 0
  br i1 %14, label %.lr.ph, label %.thread

.lr.ph:                                           ; preds = %.preheader, %72
  %indvars.iv = phi i64 [ %indvars.iv.next, %72 ], [ 0, %.preheader ]
  %15 = shl nsw i64 %indvars.iv, 4
  %16 = or disjoint i64 %15, 6
  %17 = tail call i64 @avio_seek(ptr noundef %5, i64 noundef %16, i32 noundef 0) #4
  %18 = icmp slt i64 %17, 0
  br i1 %18, label %.thread, label %19

19:                                               ; preds = %.lr.ph
  %20 = tail call ptr @avformat_new_stream(ptr noundef %0, ptr noundef null) #4
  %.not70 = icmp eq ptr %20, null
  br i1 %.not70, label %.thread, label %21

21:                                               ; preds = %19
  %22 = getelementptr inbounds nuw i8, ptr %20, i64 16
  %23 = load ptr, ptr %22, align 8, !tbaa !34
  store i32 0, ptr %23, align 8, !tbaa !41
  %24 = tail call i32 @avio_r8(ptr noundef %5) #4
  %25 = load ptr, ptr %22, align 8, !tbaa !34
  %26 = getelementptr inbounds nuw i8, ptr %25, i64 72
  store i32 %24, ptr %26, align 8, !tbaa !44
  %27 = tail call i32 @avio_r8(ptr noundef %5) #4
  %28 = load ptr, ptr %22, align 8, !tbaa !34
  %29 = getelementptr inbounds nuw i8, ptr %28, i64 76
  store i32 %27, ptr %29, align 4, !tbaa !45
  %30 = tail call i32 @avio_r8(ptr noundef %5) #4
  %31 = load ptr, ptr %12, align 8, !tbaa !33
  %32 = getelementptr inbounds nuw %struct.IcoImage, ptr %31, i64 %indvars.iv, i32 2
  %33 = icmp eq i32 %30, 255
  %spec.store.select = select i1 %33, i32 0, i32 %30
  store i32 %spec.store.select, ptr %32, align 4
  %34 = tail call i64 @avio_skip(ptr noundef %5, i64 noundef 5) #4
  %35 = tail call i32 @avio_rl32(ptr noundef %5) #4
  %36 = load ptr, ptr %12, align 8, !tbaa !33
  %37 = getelementptr inbounds nuw %struct.IcoImage, ptr %36, i64 %indvars.iv, i32 1
  store i32 %35, ptr %37, align 4, !tbaa !46
  %38 = icmp slt i32 %35, 1
  br i1 %38, label %39, label %40

39:                                               ; preds = %21
  tail call void (ptr, i32, ptr, ...) @av_log(ptr noundef %0, i32 noundef 16, ptr noundef nonnull @.str.2, i32 noundef %35) #4
  br label %.thread

40:                                               ; preds = %21
  %41 = tail call i32 @avio_rl32(ptr noundef %5) #4
  %42 = load ptr, ptr %12, align 8, !tbaa !33
  %43 = getelementptr inbounds nuw %struct.IcoImage, ptr %42, i64 %indvars.iv
  store i32 %41, ptr %43, align 4, !tbaa !48
  %44 = sext i32 %41 to i64
  %45 = tail call i64 @avio_seek(ptr noundef %5, i64 noundef %44, i32 noundef 0) #4
  %46 = icmp slt i64 %45, 0
  br i1 %46, label %.thread, label %47

47:                                               ; preds = %40
  %48 = tail call i32 @avio_rl32(ptr noundef %5) #4
  switch i32 %48, label %70 [
    i32 1196314761, label %49
    i32 40, label %53
  ]

49:                                               ; preds = %47
  %50 = load ptr, ptr %22, align 8, !tbaa !34
  %51 = getelementptr inbounds nuw i8, ptr %50, i64 4
  store i32 61, ptr %51, align 4, !tbaa !49
  %52 = getelementptr inbounds nuw i8, ptr %50, i64 72
  store i32 0, ptr %52, align 8, !tbaa !44
  br label %.sink.split

53:                                               ; preds = %47
  %54 = load ptr, ptr %12, align 8, !tbaa !33
  %55 = getelementptr inbounds nuw %struct.IcoImage, ptr %54, i64 %indvars.iv, i32 1
  %56 = load i32, ptr %55, align 4, !tbaa !46
  %57 = icmp slt i32 %56, 40
  br i1 %57, label %.thread, label %58

58:                                               ; preds = %53
  %59 = load ptr, ptr %22, align 8, !tbaa !34
  %60 = getelementptr inbounds nuw i8, ptr %59, i64 4
  store i32 78, ptr %60, align 4, !tbaa !49
  %61 = tail call i32 @avio_rl32(ptr noundef %5) #4
  %.not71 = icmp eq i32 %61, 0
  br i1 %.not71, label %65, label %62

62:                                               ; preds = %58
  %63 = load ptr, ptr %22, align 8, !tbaa !34
  %64 = getelementptr inbounds nuw i8, ptr %63, i64 72
  store i32 %61, ptr %64, align 8, !tbaa !44
  br label %65

65:                                               ; preds = %62, %58
  %66 = tail call i32 @avio_rl32(ptr noundef %5) #4
  %.not72 = icmp eq i32 %66, 0
  br i1 %.not72, label %72, label %67

67:                                               ; preds = %65
  %68 = sdiv i32 %66, 2
  %69 = load ptr, ptr %22, align 8, !tbaa !34
  br label %.sink.split

70:                                               ; preds = %47
  tail call void (ptr, ptr, ...) @avpriv_request_sample(ptr noundef %0, ptr noundef nonnull @.str.3, i32 noundef %48) #4
  br label %.thread

.sink.split:                                      ; preds = %49, %67
  %.sink92 = phi ptr [ %69, %67 ], [ %50, %49 ]
  %.sink = phi i32 [ %68, %67 ], [ 0, %49 ]
  %71 = getelementptr inbounds nuw i8, ptr %.sink92, i64 76
  store i32 %.sink, ptr %71, align 4, !tbaa !45
  br label %72

72:                                               ; preds = %.sink.split, %65
  %indvars.iv.next = add nuw nsw i64 %indvars.iv, 1
  %73 = load i32, ptr %8, align 4, !tbaa !31
  %74 = sext i32 %73 to i64
  %75 = icmp slt i64 %indvars.iv.next, %74
  br i1 %75, label %.lr.ph, label %.thread, !llvm.loop !50

.thread:                                          ; preds = %72, %.lr.ph, %19, %40, %53, %.preheader, %70, %39, %9, %1
  %.0 = phi i32 [ -1094995529, %1 ], [ -12, %9 ], [ -1094995529, %70 ], [ -1094995529, %39 ], [ 0, %.preheader ], [ 0, %72 ], [ -1094995529, %.lr.ph ], [ -12, %19 ], [ -1094995529, %40 ], [ -1094995529, %53 ]
  ret i32 %.0
}